target datalayout = "e-m:e-p270:32:32-p271:32:32-p272:64:64-i64:64-i128:128-f80:128-n8:16:32:64-S128"
target triple = "x86_64-pc-linux-gnu"

%struct.buf_t = type { i32, ptr, i32, i32, i8, i8 }

@.str.62 = private unnamed_addr constant [24 x i8] c"state recover error: %m\00", align 1
@.str.63 = private unnamed_addr constant [33 x i8] c"state recover error, msg_size=%u\00", align 1
@.str.64 = private unnamed_addr constant [20 x i8] c"state recover error\00", align 1

; Function Attrs: nounwind uwtable
define internal ptr @_load_dbd_rec(i32 noundef %0) #0 {
  %2 = alloca ptr, align 8
  %3 = alloca i32, align 4
  %4 = alloca i64, align 8
  %5 = alloca i64, align 8
  %6 = alloca i32, align 4
  %7 = alloca i32, align 4
  %8 = alloca ptr, align 8
  %9 = alloca ptr, align 8
  %10 = alloca i32, align 4
  store i32 %0, ptr %3, align 4
  call void @llvm.lifetime.start.p0(i64 8, ptr %4) #9
  call void @llvm.lifetime.start.p0(i64 8, ptr %5) #9
  call void @llvm.lifetime.start.p0(i64 4, ptr %6) #9
  call void @llvm.lifetime.start.p0(i64 4, ptr %7) #9
  call void @llvm.lifetime.start.p0(i64 8, ptr %8) #9
  call void @llvm.lifetime.start.p0(i64 8, ptr %9) #9
  store i64 4, ptr %4, align 8
  %11 = load i32, ptr %3, align 4
  %12 = load i64, ptr %4, align 8
  %13 = call i64 @read(i32 noundef %11, ptr noundef %6, i64 noundef %12)
  store i64 %13, ptr %5, align 8
  %14 = load i64, ptr %5, align 8
  %15 = icmp eq i64 %14, 0
  br i1 %15, label %16, label %17

16:                                               ; preds = %1
  store ptr null, ptr %2, align 8
  store i32 1, ptr %10, align 4
  br label %102

17:                                               ; preds = %1
  %18 = load i64, ptr %5, align 8
  %19 = load i64, ptr %4, align 8
  %20 = icmp ne i64 %18, %19
  br i1 %20, label %21, label %23

21:                                               ; preds = %17
  %22 = call i32 (ptr, ...) @slurm_error(ptr noundef @.str.62)
  store ptr null, ptr %2, align 8
  store i32 1, ptr %10, align 4
  br label %102

23:                                               ; preds = %17
  %24 = load i32, ptr %6, align 4
  %25 = icmp ugt i32 %24, -65536
  br i1 %25, label %26, label %29

26:                                               ; preds = %23
  %27 = load i32, ptr %6, align 4
  %28 = call i32 (ptr, ...) @slurm_error(ptr noundef @.str.63, i32 noundef %27)
  store ptr null, ptr %2, align 8
  store i32 1, ptr %10, align 4
  br label %102

29:                                               ; preds = %23
  %30 = load i32, ptr %6, align 4
  %31 = call ptr @slurm_init_buf(i32 noundef %30)
  store ptr %31, ptr %9, align 8
  %32 = load i32, ptr %6, align 4
  %33 = load ptr, ptr %9, align 8
  %34 = getelementptr inbounds nuw %struct.buf_t, ptr %33, i32 0, i32 3
  store i32 %32, ptr %34, align 4
  %35 = load ptr, ptr %9, align 8
  %36 = getelementptr inbounds nuw %struct.buf_t, ptr %35, i32 0, i32 1
  %37 = load ptr, ptr %36, align 8
  store ptr %37, ptr %8, align 8
  %38 = load i32, ptr %6, align 4
  %39 = zext i32 %38 to i64
  store i64 %39, ptr %4, align 8
  br label %40

40:                                               ; preds = %79, %68, %29
  %41 = load i64, ptr %4, align 8
  %42 = icmp ne i64 %41, 0
  br i1 %42, label %43, label %80

43:                                               ; preds = %40
  %44 = load i32, ptr %3, align 4
  %45 = load ptr, ptr %8, align 8
  %46 = load i64, ptr %4, align 8
  %47 = call i64 @read(i32 noundef %44, ptr noundef %45, i64 noundef %46)
  store i64 %47, ptr %5, align 8
  %48 = load i64, ptr %5, align 8
  %49 = icmp sgt i64 %48, 0
  br i1 %49, label %50, label %61

50:                                               ; preds = %43
  %51 = load i64, ptr %5, align 8
  %52 = load i64, ptr %4, align 8
  %53 = icmp sle i64 %51, %52
  br i1 %53, label %54, label %61

54:                                               ; preds = %50
  %55 = load i64, ptr %5, align 8
  %56 = load ptr, ptr %8, align 8
  %57 = getelementptr inbounds i8, ptr %56, i64 %55
  store ptr %57, ptr %8, align 8
  %58 = load i64, ptr %5, align 8
  %59 = load i64, ptr %4, align 8
  %60 = sub nsw i64 %59, %58
  store i64 %60, ptr %4, align 8
  br label %79

61:                                               ; preds = %50, %43
  %62 = load i64, ptr %5, align 8
  %63 = icmp eq i64 %62, -1
  br i1 %63, label %64, label %69

64:                                               ; preds = %61
  %65 = call ptr @__errno_location() #10
  %66 = load i32, ptr %65, align 4
  %67 = icmp eq i32 %66, 4
  br i1 %67, label %68, label %69

68:                                               ; preds = %64
  br label %40, !llvm.loop !16

69:                                               ; preds = %64, %61
  %70 = call i32 (ptr, ...) @slurm_error(ptr noundef @.str.62)
  br label %71

71:                                               ; preds = %69
  %72 = load ptr, ptr %9, align 8
  %73 = icmp ne ptr %72, null
  br i1 %73, label %74, label %76

74:                                               ; preds = %71
  %75 = load ptr, ptr %9, align 8
  call void @slurm_free_buf(ptr noundef %75)
  br label %76

76:                                               ; preds = %74, %71
  store ptr null, ptr %9, align 8
  br label %77

77:                                               ; preds = %76
  br label %78

78:                                               ; preds = %77
  store ptr null, ptr %2, align 8
  store i32 1, ptr %10, align 4
  br label %102

79:                                               ; preds = %54
  br label %40, !llvm.loop !16

80:                                               ; preds = %40
  store i64 4, ptr %4, align 8
  %81 = load i32, ptr %3, align 4
  %82 = load i64, ptr %4, align 8
  %83 = call i64 @read(i32 noundef %81, ptr noundef %7, i64 noundef %82)
  store i64 %83, ptr %5, align 8
  %84 = load i64, ptr %5, align 8
  %85 = load i64, ptr %4, align 8
  %86 = icmp ne i64 %84, %85
  br i1 %86, label %90, label %87

87:                                               ; preds = %80
  %88 = load i32, ptr %7, align 4
  %89 = icmp ne i32 %88, -559074791
  br i1 %89, label %90, label %100

90:                                               ; preds = %87, %80
  %91 = call i32 (ptr, ...) @slurm_error(ptr noundef @.str.64)
  br label %92

92:                                               ; preds = %90
  %93 = load ptr, ptr %9, align 8
  %94 = icmp ne ptr %93, null
  br i1 %94, label %95, label %97

95:                                               ; preds = %92
  %96 = load ptr, ptr %9, align 8
  call void @slurm_free_buf(ptr noundef %96)
  br label %97

97:                                               ; preds = %95, %92
  store ptr null, ptr %9, align 8
  br label %98

98:                                               ; preds = %97
  br label %99

99:                                               ; preds = %98
  store ptr null, ptr %2, align 8
  store i32 1, ptr %10, align 4
  br label %102

100:                                              ; preds = %87
  %101 = load ptr, ptr %9, align 8
  store ptr %101, ptr %2, align 8
  store i32 1, ptr %10, align 4
  br label %102

102:                                              ; preds = %100, %99, %78, %26, %21, %16
  call void @llvm.lifetime.end.p0(i64 8, ptr %9) #9
  call void @llvm.lifetime.end.p0(i64 8, ptr %8) #9
  call void @llvm.lifetime.end.p0(i64 4, ptr %7) #9
  call void @llvm.lifetime.end.p0(i64 4, ptr %6) #9
  call void @llvm.lifetime.end.p0(i64 8, ptr %5) #9
  call void @llvm.lifetime.end.p0(i64 8, ptr %4) #9
  %103 = load ptr, ptr %2, align 8
  ret ptr %103
}