; Function Attrs: nounwind uwtable
define internal fastcc ptr @_load_dbd_rec(i32 noundef range(i32 0, -2147483648) %0) unnamed_addr #0 {
  %2 = alloca i32, align 4
  %3 = alloca i32, align 4
  call void @llvm.lifetime.start.p0(i64 4, ptr nonnull %2) #13
  call void @llvm.lifetime.start.p0(i64 4, ptr nonnull %3) #13
  %4 = call i64 @read(i32 noundef %0, ptr noundef nonnull %2, i64 noundef 4) #13
  switch i64 %4, label %5 [
    i64 0, label %39
    i64 4, label %7
  ]

5:                                                ; preds = %1
  %6 = tail call i32 (ptr, ...) @slurm_error(ptr noundef nonnull @.str.62) #13
  br label %39

7:                                                ; preds = %1
  %8 = load i32, ptr %2, align 4
  %9 = icmp ugt i32 %8, -65536
  br i1 %9, label %10, label %12

10:                                               ; preds = %7
  %11 = tail call i32 (ptr, ...) @slurm_error(ptr noundef nonnull @.str.63, i32 noundef %8) #13
  br label %39

12:                                               ; preds = %7
  %13 = tail call ptr @slurm_init_buf(i32 noundef %8) #13
  %14 = getelementptr inbounds nuw i8, ptr %13, i64 20
  store i32 %8, ptr %14, align 4
  %.not3642 = icmp eq i32 %8, 0
  br i1 %.not3642, label %.outer._crit_edge, label %.outer.split.preheader

.outer.split.preheader:                           ; preds = %12
  %15 = zext i32 %8 to i64
  %16 = getelementptr inbounds nuw i8, ptr %13, i64 8
  %17 = load ptr, ptr %16, align 8
  br label %.outer.split

.outer.split:                                     ; preds = %.outer.split.preheader, %.outer
  %.0.ph44 = phi ptr [ %21, %.outer ], [ %17, %.outer.split.preheader ]
  %.029.ph43 = phi i64 [ %22, %.outer ], [ %15, %.outer.split.preheader ]
  br label %18

18:                                               ; preds = %.outer.split, %25
  %19 = tail call i64 @read(i32 noundef %0, ptr noundef %.0.ph44, i64 noundef %.029.ph43) #13
  %20 = icmp slt i64 %19, 1
  %.not38 = icmp sgt i64 %19, %.029.ph43
  %or.cond40 = or i1 %20, %.not38
  br i1 %or.cond40, label %23, label %.outer

.outer:                                           ; preds = %18
  %21 = getelementptr inbounds nuw i8, ptr %.0.ph44, i64 %19
  %22 = sub nsw i64 %.029.ph43, %19
  %.not36 = icmp eq i64 %22, 0
  br i1 %.not36, label %.outer._crit_edge, label %.outer.split, !llvm.loop !14

23:                                               ; preds = %18
  %24 = icmp eq i64 %19, -1
  br i1 %24, label %25, label %29

25:                                               ; preds = %23
  %26 = tail call ptr @__errno_location() #14
  %27 = load i32, ptr %26, align 4
  %28 = icmp eq i32 %27, 4
  br i1 %28, label %18, label %29, !llvm.loop !14

29:                                               ; preds = %25, %23
  %30 = tail call i32 (ptr, ...) @slurm_error(ptr noundef nonnull @.str.62) #13
  %.not39 = icmp eq ptr %13, null
  br i1 %.not39, label %39, label %31

31:                                               ; preds = %29
  tail call void @slurm_free_buf(ptr noundef nonnull %13) #13
  br label %39

.outer._crit_edge:                                ; preds = %.outer, %12
  %32 = call i64 @read(i32 noundef %0, ptr noundef nonnull %3, i64 noundef 4) #13
  %33 = icmp ne i64 %32, 4
  %34 = load i32, ptr %3, align 4
  %35 = icmp ne i32 %34, -559074791
  %or.cond = select i1 %33, i1 true, i1 %35
  br i1 %or.cond, label %36, label %39

36:                                               ; preds = %.outer._crit_edge
  %37 = tail call i32 (ptr, ...) @slurm_error(ptr noundef nonnull @.str.64) #13
  %.not37 = icmp eq ptr %13, null
  br i1 %.not37, label %39, label %38

38:                                               ; preds = %36
  tail call void @slurm_free_buf(ptr noundef nonnull %13) #13
  br label %39

39:                                               ; preds = %.outer._crit_edge, %36, %38, %29, %31, %1, %10, %5
  %.030 = phi ptr [ null, %5 ], [ null, %10 ], [ null, %1 ], [ null, %31 ], [ null, %29 ], [ null, %38 ], [ null, %36 ], [ %13, %.outer._crit_edge ]
  call void @llvm.lifetime.end.p0(i64 4, ptr nonnull %3) #13
  call void @llvm.lifetime.end.p0(i64 4, ptr nonnull %2) #13
  ret ptr %.030
}